(lp0
S'PREFIX ma: <http://www.w3.org/ns/ma-ont#>\nPREFIX mm:  <http://linkedmultimedia.org/sparql-mm/ns/2.0.0/function#>\nPREFIX dc: <http://purl.org/dc/elements/1.1/>\nPREFIX foaf: <http://xmlns.com/foaf/0.1/>\nSELECT ?f1 ?f2 WHERE {\n  ?f1 dc:description "Person".\n  ?f2 dc:description "Car".\n\n  FILTER mm:leftBeside(?f1, ?f2)\n}'
p1
aS'PREFIX ma: <http://www.w3.org/ns/ma-ont#>\nPREFIX mm:  <http://linkedmultimedia.org/sparql-mm/ns/2.0.0/function#>\nPREFIX dc: <http://purl.org/dc/elements/1.1/>\nPREFIX foaf: <http://xmlns.com/foaf/0.1/>\nSELECT ?f1 ?f2 WHERE {\n  ?f1 dc:description "Person".\n  ?f2 dc:description "Car".\n\n  FILTER mm:leftBeside(?f1, ?f2)\n}LIMIT 50'
p2
aS'PREFIX ma: <http://www.w3.org/ns/ma-ont#>\nPREFIX mm:  <http://linkedmultimedia.org/sparql-mm/ns/2.0.0/function#>\nPREFIX dc: <http://purl.org/dc/elements/1.1/>\nPREFIX foaf: <http://xmlns.com/foaf/0.1/>\nSELECT ?f1 ?f2 WHERE {\n  ?f1 dc:description "Person".\n  ?f2 dc:description "Car".\n\n  FILTER mm:leftBeside(?f1, ?f2)\n}LIMIT 100'
p3
aS'PREFIX ma: <http://www.w3.org/ns/ma-ont#>\nPREFIX mm:  <http://linkedmultimedia.org/sparql-mm/ns/2.0.0/function#>\nPREFIX dc: <http://purl.org/dc/elements/1.1/>\nPREFIX foaf: <http://xmlns.com/foaf/0.1/>\nSELECT ?f1 ?f2 WHERE {\n  ?f1 dc:description "Person".\n  ?f2 dc:description "Tree".\n\n  FILTER mm:rightBeside(?f1, ?f2)\n}'
p4
aS'PREFIX ma: <http://www.w3.org/ns/ma-ont#>\nPREFIX mm:  <http://linkedmultimedia.org/sparql-mm/ns/2.0.0/function#>\nPREFIX dc: <http://purl.org/dc/elements/1.1/>\nPREFIX foaf: <http://xmlns.com/foaf/0.1/>\nSELECT ?f1 ?f2 WHERE {\n  ?f1 dc:description "Person".\n  ?f2 dc:description "Tree".\n\n  FILTER mm:rightBeside(?f1, ?f2)\n}limit 50'
p5
aS'PREFIX ma: <http://www.w3.org/ns/ma-ont#>\nPREFIX mm:  <http://linkedmultimedia.org/sparql-mm/ns/2.0.0/function#>\nPREFIX dc: <http://purl.org/dc/elements/1.1/>\nPREFIX foaf: <http://xmlns.com/foaf/0.1/>\nSELECT ?f1 ?f2 WHERE {\n  ?f1 dc:description "Person".\n  ?f2 dc:description "Tree".\n\n  FILTER mm:rightBeside(?f1, ?f2)\n}limit 100'
p6
ag1
aS'PREFIX ma: <http://www.w3.org/ns/ma-ont#>\nPREFIX mm:  <http://linkedmultimedia.org/sparql-mm/ns/2.0.0/function#>\nPREFIX dc: <http://purl.org/dc/elements/1.1/>\nPREFIX foaf: <http://xmlns.com/foaf/0.1/>\nSELECT ?f1 ?f2 WHERE {\n  ?f1 dc:description "Person".\n  ?f2 dc:description "Car".\n\n  FILTER mm:leftBeside(?f1, ?f2)\n}limit 50'
p7
aS'PREFIX ma: <http://www.w3.org/ns/ma-ont#>\nPREFIX mm:  <http://linkedmultimedia.org/sparql-mm/ns/2.0.0/function#>\nPREFIX dc: <http://purl.org/dc/elements/1.1/>\nPREFIX foaf: <http://xmlns.com/foaf/0.1/>\nSELECT ?f1 ?f2 WHERE {\n  ?f1 dc:description "Person".\n  ?f2 dc:description "Car".\n\n  FILTER mm:leftBeside(?f1, ?f2)\n}limit 100'
p8
aS'PREFIX ma: <http://www.w3.org/ns/ma-ont#>\nPREFIX mm:  <http://linkedmultimedia.org/sparql-mm/ns/2.0.0/function#>\nPREFIX dc: <http://purl.org/dc/elements/1.1/>\nPREFIX foaf: <http://xmlns.com/foaf/0.1/>\nSELECT ?f1 ?f2 WHERE {\n  ?f1 dc:description "Person".\n  ?f2 dc:description "Tree".\n\n  FILTER mm:rightBeside(?f1, ?f2)\n}limit 200'
p9
aS'PREFIX ma: <http://www.w3.org/ns/ma-ont#>\nPREFIX mm:  <http://linkedmultimedia.org/sparql-mm/ns/2.0.0/function#>\nPREFIX dc: <http://purl.org/dc/elements/1.1/>\nPREFIX foaf: <http://xmlns.com/foaf/0.1/>\nSELECT ?f1 ?f2 WHERE {\n  ?f1 dc:description "Person".\n  ?f2 dc:description "Animal".\n\n  FILTER mm:rightAbove(?f1, ?f2)\n}'
p10
aS'PREFIX ma: <http://www.w3.org/ns/ma-ont#>\nPREFIX mm:  <http://linkedmultimedia.org/sparql-mm/ns/2.0.0/function#>\nPREFIX dc: <http://purl.org/dc/elements/1.1/>\nPREFIX foaf: <http://xmlns.com/foaf/0.1/>\nSELECT ?f1 ?f2 WHERE {\n  ?f1 dc:description "Person".\n  ?f2 dc:description "Animal".\n\n  FILTER mm:rightAbove(?f1, ?f2)\n}limit 50'
p11
aS'PREFIX ma: <http://www.w3.org/ns/ma-ont#>\nPREFIX mm:  <http://linkedmultimedia.org/sparql-mm/ns/2.0.0/function#>\nPREFIX dc: <http://purl.org/dc/elements/1.1/>\nPREFIX foaf: <http://xmlns.com/foaf/0.1/>\nSELECT ?f1 ?f2 WHERE {\n  ?f1 dc:description "Person".\n  ?f2 dc:description "Animal".\n\n  FILTER mm:rightAbove(?f1, ?f2)\n}limit 100'
p12
aS'PREFIX ma: <http://www.w3.org/ns/ma-ont#>\nPREFIX mm:  <http://linkedmultimedia.org/sparql-mm/ns/2.0.0/function#>\nPREFIX dc: <http://purl.org/dc/elements/1.1/>\nPREFIX foaf: <http://xmlns.com/foaf/0.1/>\nSELECT ?f1 ?f2 WHERE {\n  ?f1 dc:description "Person".\n  ?f2 dc:description "Person".\n\n  FILTER mm:leftAbove(?f1, ?f2)\n}limit 10'
p13
aS'PREFIX ma: <http://www.w3.org/ns/ma-ont#>\nPREFIX mm:  <http://linkedmultimedia.org/sparql-mm/ns/2.0.0/function#>\nPREFIX dc: <http://purl.org/dc/elements/1.1/>\nPREFIX foaf: <http://xmlns.com/foaf/0.1/>\nSELECT ?f1 ?f2 WHERE {\n  ?f1 dc:description "Person".\n  ?f2 dc:description "Person".\n\n  FILTER mm:below(?f1, ?f2)\n}limit 20'
p14
aS'PREFIX ma: <http://www.w3.org/ns/ma-ont#>\nPREFIX mm:  <http://linkedmultimedia.org/sparql-mm/ns/2.0.0/function#>\nPREFIX dc: <http://purl.org/dc/elements/1.1/>\nPREFIX foaf: <http://xmlns.com/foaf/0.1/>\nSELECT ?f1 ?f2 WHERE {\n  ?f1 dc:description "Person".\n  ?f2 dc:description "Car".\n  FILTER mm:rightBeside(?f2, ?f1)\n}'
p15
aS'PREFIX ma: <http://www.w3.org/ns/ma-ont#>\nPREFIX mm:  <http://linkedmultimedia.org/sparql-mm/ns/2.0.0/function#>\nPREFIX dc: <http://purl.org/dc/elements/1.1/>\nPREFIX foaf: <http://xmlns.com/foaf/0.1/>\nSELECT ?f1 ?f2 WHERE {\n  ?f2 dc:description "Car".\n  ?f3 dc:description "Person".\n\n  FILTER mm:rightBeside(?f2, ?f3)\n}limit 50'
p16
aS'PREFIX ma: <http://www.w3.org/ns/ma-ont#>\nPREFIX mm:  <http://linkedmultimedia.org/sparql-mm/ns/2.0.0/function#>\nPREFIX dc: <http://purl.org/dc/elements/1.1/>\nPREFIX foaf: <http://xmlns.com/foaf/0.1/>\nSELECT ?f1 ?f2 WHERE {\n  ?f1 dc:description "Person".\n  ?f2 dc:description "Car".\n\n  FILTER mm:rightBeside(?f1, ?f2)\n}limit 100'
p17
aS'PREFIX ma: <http://www.w3.org/ns/ma-ont#>\nPREFIX mm:  <http://linkedmultimedia.org/sparql-mm/ns/2.0.0/function#>\nPREFIX dc: <http://purl.org/dc/elements/1.1/>\nPREFIX foaf: <http://xmlns.com/foaf/0.1/>\nSELECT ?f1 ?f2 WHERE {\n  ?f1 dc:description "Person".\n  ?f2 dc:description "Person".\n\n  FILTER mm:leftBeside(?f1, ?f2)\n}limit 20'
p18
aS'PREFIX ma: <http://www.w3.org/ns/ma-ont#>\nPREFIX mm:  <http://linkedmultimedia.org/sparql-mm/ns/2.0.0/function#>\nPREFIX dc: <http://purl.org/dc/elements/1.1/>\nPREFIX foaf: <http://xmlns.com/foaf/0.1/>\nSELECT ?f1 ?f2 WHERE {\n  ?f1 dc:description "Person".\n  ?f2 dc:description "Person".\n\n  FILTER mm:spatialEquals(?f1, ?f2)\n}limit 20'
p19
aS'PREFIX ma: <http://www.w3.org/ns/ma-ont#>\nPREFIX mm:  <http://linkedmultimedia.org/sparql-mm/ns/2.0.0/function#>\nPREFIX dc: <http://purl.org/dc/elements/1.1/>\nPREFIX foaf: <http://xmlns.com/foaf/0.1/>\nSELECT ?f1 ?f2 WHERE {\n  ?f1 dc:description "Person".\n  ?f2 dc:description "Tree".\n\n  FILTER mm:spatialDisjoint(?f1, ?f2)\n}'
p20
aS'PREFIX ma: <http://www.w3.org/ns/ma-ont#>\nPREFIX mm:  <http://linkedmultimedia.org/sparql-mm/ns/2.0.0/function#>\nPREFIX dc: <http://purl.org/dc/elements/1.1/>\nPREFIX foaf: <http://xmlns.com/foaf/0.1/>\nSELECT ?f1 ?f2 WHERE {\n  ?f1 dc:description "Person".\n  ?f2 dc:description "Tree".\n\n  FILTER mm:spatialDisjoint(?f1, ?f2)\n}limit 100'
p21
aS'PREFIX ma: <http://www.w3.org/ns/ma-ont#>\nPREFIX mm:  <http://linkedmultimedia.org/sparql-mm/ns/2.0.0/function#>\nPREFIX dc: <http://purl.org/dc/elements/1.1/>\nPREFIX foaf: <http://xmlns.com/foaf/0.1/>\nSELECT ?f1 ?f2 WHERE {\n  ?f1 dc:description "Person".\n  ?f2 dc:description "Car".\n\n  FILTER mm:spatialDisjoint(?f1, ?f2)\n}'
p22
aS'PREFIX ma: <http://www.w3.org/ns/ma-ont#>\nPREFIX mm:  <http://linkedmultimedia.org/sparql-mm/ns/2.0.0/function#>\nPREFIX dc: <http://purl.org/dc/elements/1.1/>\nPREFIX foaf: <http://xmlns.com/foaf/0.1/>\nSELECT ?f1 ?f2 WHERE {\n  ?f1 dc:description "Person".\n  ?f2 dc:description "Car".\n\n  FILTER mm:spatialDisjoint(?f1, ?f2)\n}limit 100'
p23
aS'PREFIX ma: <http://www.w3.org/ns/ma-ont#>\nPREFIX mm:  <http://linkedmultimedia.org/sparql-mm/ns/2.0.0/function#>\nPREFIX dc: <http://purl.org/dc/elements/1.1/>\nPREFIX foaf: <http://xmlns.com/foaf/0.1/>\nSELECT ?f1 ?f2 WHERE {\n  ?f1 dc:description "Car".\n  ?f2 dc:description "Tree".\n\n  FILTER mm:spatialContains(?f1, ?f2)\n}'
p24
aS'PREFIX ma: <http://www.w3.org/ns/ma-ont#>\nPREFIX mm:  <http://linkedmultimedia.org/sparql-mm/ns/2.0.0/function#>\nPREFIX dc: <http://purl.org/dc/elements/1.1/>\nPREFIX foaf: <http://xmlns.com/foaf/0.1/>\nSELECT ?f1 ?f2 WHERE {\n  ?f1 dc:description "Car".\n  ?f2 dc:description "Tree".\n\n  FILTER mm:spatialContains(?f1, ?f2)\n}limit 50'
p25
aS'PREFIX ma: <http://www.w3.org/ns/ma-ont#>\nPREFIX mm:  <http://linkedmultimedia.org/sparql-mm/ns/2.0.0/function#>\nPREFIX dc: <http://purl.org/dc/elements/1.1/>\nPREFIX foaf: <http://xmlns.com/foaf/0.1/>\nSELECT ?f1 ?f2 WHERE {\n  ?f1 dc:description "Car".\n  ?f2 dc:description "Tree".\n\n  FILTER mm:covers(?f1, ?f2)\n}'
p26
aS'PREFIX ma: <http://www.w3.org/ns/ma-ont#>\nPREFIX mm:  <http://linkedmultimedia.org/sparql-mm/ns/2.0.0/function#>\nPREFIX dc: <http://purl.org/dc/elements/1.1/>\nPREFIX foaf: <http://xmlns.com/foaf/0.1/>\nSELECT ?f1 ?f2 WHERE {\n  ?f1 dc:description "Car".\n  ?f2 dc:description "Tree".\n\n  FILTER mm:covers(?f1, ?f2)\n}limit 50'
p27
aS'PREFIX ma: <http://www.w3.org/ns/ma-ont#>\nPREFIX mm:  <http://linkedmultimedia.org/sparql-mm/ns/2.0.0/function#>\nPREFIX dc: <http://purl.org/dc/elements/1.1/>\nPREFIX foaf: <http://xmlns.com/foaf/0.1/>\nSELECT ?f1 ?f2 WHERE {\n  ?f1 dc:description "Tree".\n  ?f2 dc:description "Tree".\n\n  FILTER mm:spatialOverlaps(?f1, ?f2)\n}'
p28
aS'PREFIX ma: <http://www.w3.org/ns/ma-ont#>\nPREFIX mm:  <http://linkedmultimedia.org/sparql-mm/ns/2.0.0/function#>\nPREFIX dc: <http://purl.org/dc/elements/1.1/>\nPREFIX foaf: <http://xmlns.com/foaf/0.1/>\nSELECT ?f1 ?f2 WHERE {\n  ?f1 dc:description "Tree".\n  ?f2 dc:description "Tree".\n\n  FILTER mm:spatialOverlaps(?f1, ?f2)\n}limit 100'
p29
aS'PREFIX ma: <http://www.w3.org/ns/ma-ont#>\nPREFIX mm:  <http://linkedmultimedia.org/sparql-mm/ns/2.0.0/function#>\nPREFIX dc: <http://purl.org/dc/elements/1.1/>\nPREFIX foaf: <http://xmlns.com/foaf/0.1/>\nSELECT ?subject ?f1 ?f2 WHERE {\n  ?subject ma:hasFragment ?f1;\n            ma:hasFragment ?f2;\n            dc:title ?topic.\n  ?f1 dc:description "Person".\n  ?f2 dc:description "Car".\n\n  FILTER mm:leftBeside(?f1, ?f2)\n}'
p30
aS'PREFIX ma: <http://www.w3.org/ns/ma-ont#>\nPREFIX mm:  <http://linkedmultimedia.org/sparql-mm/ns/2.0.0/function#>\nPREFIX dc: <http://purl.org/dc/elements/1.1/>\nPREFIX foaf: <http://xmlns.com/foaf/0.1/>\nSELECT ?subject ?f1 ?f2 WHERE {\n  ?subject ma:hasFragment ?f1;\n            ma:hasFragment ?f2;\n            dc:title ?topic.\n  ?f1 dc:description "Person".\n  ?f2 dc:description "Car".\n\n  FILTER mm:leftBeside(?f1, ?f2)\n}LIMIT 50'
p31
aS'PREFIX ma: <http://www.w3.org/ns/ma-ont#>\nPREFIX mm:  <http://linkedmultimedia.org/sparql-mm/ns/2.0.0/function#>\nPREFIX dc: <http://purl.org/dc/elements/1.1/>\nPREFIX foaf: <http://xmlns.com/foaf/0.1/>\nSELECT ?subject ?f1 ?f2 WHERE {\n  ?subject ma:hasFragment ?f1;\n            ma:hasFragment ?f2;\n            dc:title ?topic.\n  ?f1 dc:description "Person".\n  ?f2 dc:description "Car".\n\n  FILTER mm:leftBeside(?f1, ?f2)\n}LIMIT 100'
p32
aS'PREFIX ma: <http://www.w3.org/ns/ma-ont#>\nPREFIX mm:  <http://linkedmultimedia.org/sparql-mm/ns/2.0.0/function#>\nPREFIX dc: <http://purl.org/dc/elements/1.1/>\nPREFIX foaf: <http://xmlns.com/foaf/0.1/>\nSELECT ?subject ?f1 ?f2 WHERE {\n  ?subject ma:hasFragment ?f1;\n            ma:hasFragment ?f2;\n            dc:title ?topic.\n  ?f1 dc:description "Person".\n  ?f2 dc:description "Tree".\n\n  FILTER mm:rightBeside(?f1, ?f2)\n}'
p33
aS'PREFIX ma: <http://www.w3.org/ns/ma-ont#>\nPREFIX mm:  <http://linkedmultimedia.org/sparql-mm/ns/2.0.0/function#>\nPREFIX dc: <http://purl.org/dc/elements/1.1/>\nPREFIX foaf: <http://xmlns.com/foaf/0.1/>\nSELECT ?subject ?f1 ?f2 WHERE {\n  ?subject ma:hasFragment ?f1;\n            ma:hasFragment ?f2;\n            dc:title ?topic.\n  ?f1 dc:description "Person".\n  ?f2 dc:description "Tree".\n\n  FILTER mm:rightBeside(?f1, ?f2)\n}limit 50'
p34
aS'PREFIX ma: <http://www.w3.org/ns/ma-ont#>\nPREFIX mm:  <http://linkedmultimedia.org/sparql-mm/ns/2.0.0/function#>\nPREFIX dc: <http://purl.org/dc/elements/1.1/>\nPREFIX foaf: <http://xmlns.com/foaf/0.1/>\nSELECT ?subject ?f1 ?f2 WHERE {\n  ?subject ma:hasFragment ?f1;\n            ma:hasFragment ?f2;\n            dc:title ?topic.\n  ?f1 dc:description "Person".\n  ?f2 dc:description "Tree".\n\n  FILTER mm:rightBeside(?f1, ?f2)\n}limit 100'
p35
ag30
aS'PREFIX ma: <http://www.w3.org/ns/ma-ont#>\nPREFIX mm:  <http://linkedmultimedia.org/sparql-mm/ns/2.0.0/function#>\nPREFIX dc: <http://purl.org/dc/elements/1.1/>\nPREFIX foaf: <http://xmlns.com/foaf/0.1/>\nSELECT ?subject ?f1 ?f2 WHERE {\n  ?subject ma:hasFragment ?f1;\n            ma:hasFragment ?f2;\n            dc:title ?topic.\n  ?f1 dc:description "Person".\n  ?f2 dc:description "Car".\n\n  FILTER mm:leftBeside(?f1, ?f2)\n}limit 50'
p36
aS'PREFIX ma: <http://www.w3.org/ns/ma-ont#>\nPREFIX mm:  <http://linkedmultimedia.org/sparql-mm/ns/2.0.0/function#>\nPREFIX dc: <http://purl.org/dc/elements/1.1/>\nPREFIX foaf: <http://xmlns.com/foaf/0.1/>\nSELECT ?subject ?f1 ?f2 WHERE {\n  ?subject ma:hasFragment ?f1;\n            ma:hasFragment ?f2;\n            dc:title ?topic.\n  ?f1 dc:description "Person".\n  ?f2 dc:description "Car".\n\n  FILTER mm:leftBeside(?f1, ?f2)\n}limit 100'
p37
aS'PREFIX ma: <http://www.w3.org/ns/ma-ont#>\nPREFIX mm:  <http://linkedmultimedia.org/sparql-mm/ns/2.0.0/function#>\nPREFIX dc: <http://purl.org/dc/elements/1.1/>\nPREFIX foaf: <http://xmlns.com/foaf/0.1/>\nSELECT ?subject ?f1 ?f2 WHERE {\n  ?subject ma:hasFragment ?f1;\n            ma:hasFragment ?f2;\n            dc:title ?topic.\n  ?f1 dc:description "Person".\n  ?f2 dc:description "Tree".\n\n  FILTER mm:rightBeside(?f1, ?f2)\n}limit 200'
p38
aS'PREFIX ma: <http://www.w3.org/ns/ma-ont#>\nPREFIX mm:  <http://linkedmultimedia.org/sparql-mm/ns/2.0.0/function#>\nPREFIX dc: <http://purl.org/dc/elements/1.1/>\nPREFIX foaf: <http://xmlns.com/foaf/0.1/>\nSELECT ?subject ?f1 ?f2 WHERE {\n  ?subject ma:hasFragment ?f1;\n            ma:hasFragment ?f2;\n            dc:title ?topic.\n  ?f1 dc:description "Person".\n  ?f2 dc:description "Animal".\n\n  FILTER mm:rightAbove(?f1, ?f2)\n}'
p39
aS'PREFIX ma: <http://www.w3.org/ns/ma-ont#>\nPREFIX mm:  <http://linkedmultimedia.org/sparql-mm/ns/2.0.0/function#>\nPREFIX dc: <http://purl.org/dc/elements/1.1/>\nPREFIX foaf: <http://xmlns.com/foaf/0.1/>\nSELECT ?subject ?f1 ?f2 WHERE {\n  ?subject ma:hasFragment ?f1;\n            ma:hasFragment ?f2;\n            dc:title ?topic.\n  ?f1 dc:description "Person".\n  ?f2 dc:description "Animal".\n\n  FILTER mm:rightAbove(?f1, ?f2)\n}limit 50'
p40
aS'PREFIX ma: <http://www.w3.org/ns/ma-ont#>\nPREFIX mm:  <http://linkedmultimedia.org/sparql-mm/ns/2.0.0/function#>\nPREFIX dc: <http://purl.org/dc/elements/1.1/>\nPREFIX foaf: <http://xmlns.com/foaf/0.1/>\nSELECT ?subject ?f1 ?f2 WHERE {\n  ?subject ma:hasFragment ?f1;\n            ma:hasFragment ?f2;\n            dc:title ?topic.\n  ?f1 dc:description "Person".\n  ?f2 dc:description "Animal".\n\n  FILTER mm:rightAbove(?f1, ?f2)\n}limit 100'
p41
aS'PREFIX ma: <http://www.w3.org/ns/ma-ont#>\nPREFIX mm:  <http://linkedmultimedia.org/sparql-mm/ns/2.0.0/function#>\nPREFIX dc: <http://purl.org/dc/elements/1.1/>\nPREFIX foaf: <http://xmlns.com/foaf/0.1/>\nSELECT ?subject ?f1 ?f2 WHERE {\n  ?subject ma:hasFragment ?f1;\n            ma:hasFragment ?f2;\n            dc:title ?topic.\n  ?f1 dc:description "Person".\n  ?f2 dc:description "Person".\n\n  FILTER mm:leftAbove(?f1, ?f2)\n}'
p42
aS'PREFIX ma: <http://www.w3.org/ns/ma-ont#>\nPREFIX mm:  <http://linkedmultimedia.org/sparql-mm/ns/2.0.0/function#>\nPREFIX dc: <http://purl.org/dc/elements/1.1/>\nPREFIX foaf: <http://xmlns.com/foaf/0.1/>\nSELECT ?subject ?f1 ?f2 WHERE {\n  ?subject ma:hasFragment ?f1;\n            ma:hasFragment ?f2;\n            dc:title ?topic.\n  ?f1 dc:description "Person".\n  ?f2 dc:description "Person".\n\n  FILTER mm:leftAbove(?f1, ?f2)\n}limit 50'
p43
aS'PREFIX ma: <http://www.w3.org/ns/ma-ont#>\nPREFIX mm:  <http://linkedmultimedia.org/sparql-mm/ns/2.0.0/function#>\nPREFIX dc: <http://purl.org/dc/elements/1.1/>\nPREFIX foaf: <http://xmlns.com/foaf/0.1/>\nSELECT ?subject ?f1 ?f2 WHERE {\n  ?subject ma:hasFragment ?f1;\n            ma:hasFragment ?f2;\n            dc:title ?topic.\n  ?f1 dc:description "Person".\n  ?f2 dc:description "Person".\n\n  FILTER mm:leftAbove(?f1, ?f2)\n}limit 100'
p44
aS'PREFIX ma: <http://www.w3.org/ns/ma-ont#>\nPREFIX mm:  <http://linkedmultimedia.org/sparql-mm/ns/2.0.0/function#>\nPREFIX dc: <http://purl.org/dc/elements/1.1/>\nPREFIX foaf: <http://xmlns.com/foaf/0.1/>\nSELECT ?subject ?f1 ?f2 WHERE {\n  ?subject ma:hasFragment ?f1;\n            ma:hasFragment ?f2;\n            dc:title ?topic.\n  ?f1 dc:description "Person".\n  ?f2 dc:description "Person".\n\n  FILTER mm:leftAbove(?f1, ?f2)\n}limit 150'
p45
aS'PREFIX ma: <http://www.w3.org/ns/ma-ont#>\nPREFIX mm:  <http://linkedmultimedia.org/sparql-mm/ns/2.0.0/function#>\nPREFIX dc: <http://purl.org/dc/elements/1.1/>\nPREFIX foaf: <http://xmlns.com/foaf/0.1/>\nSELECT ?subject ?f1 ?f2 WHERE {\n  ?subject ma:hasFragment ?f1;\n            ma:hasFragment ?f2;\n            dc:title ?topic.\n  ?f1 dc:description "Person".\n  ?f2 dc:description "Person".\n\n  FILTER mm:below(?f1, ?f2)\n}'
p46
aS'PREFIX ma: <http://www.w3.org/ns/ma-ont#>\nPREFIX mm:  <http://linkedmultimedia.org/sparql-mm/ns/2.0.0/function#>\nPREFIX dc: <http://purl.org/dc/elements/1.1/>\nPREFIX foaf: <http://xmlns.com/foaf/0.1/>\nSELECT ?subject ?f1 ?f2 WHERE {\n  ?subject ma:hasFragment ?f1;\n            ma:hasFragment ?f2;\n            dc:title ?topic.\n  ?f1 dc:description "Person".\n  ?f2 dc:description "Person".\n\n  FILTER mm:below(?f1, ?f2)\n}limit 50'
p47
aS'PREFIX ma: <http://www.w3.org/ns/ma-ont#>\nPREFIX mm:  <http://linkedmultimedia.org/sparql-mm/ns/2.0.0/function#>\nPREFIX dc: <http://purl.org/dc/elements/1.1/>\nPREFIX foaf: <http://xmlns.com/foaf/0.1/>\nSELECT ?subject ?f1 ?f2 WHERE {\n  ?subject ma:hasFragment ?f1;\n            ma:hasFragment ?f2;\n            dc:title ?topic.\n  ?f1 dc:description "Person".\n  ?f2 dc:description "Person".\n\n  FILTER mm:below(?f1, ?f2)\n}limit 100'
p48
aS'PREFIX ma: <http://www.w3.org/ns/ma-ont#>\nPREFIX mm:  <http://linkedmultimedia.org/sparql-mm/ns/2.0.0/function#>\nPREFIX dc: <http://purl.org/dc/elements/1.1/>\nPREFIX foaf: <http://xmlns.com/foaf/0.1/>\nSELECT ?subject ?f1 ?f2 WHERE {\n  ?subject ma:hasFragment ?f1;\n            ma:hasFragment ?f2;\n            dc:title ?topic.\n  ?f1 dc:description "Person".\n  ?f2 dc:description "Person".\n\n  FILTER mm:below(?f1, ?f2)\n}limit 500'
p49
aS'PREFIX ma: <http://www.w3.org/ns/ma-ont#>\nPREFIX mm:  <http://linkedmultimedia.org/sparql-mm/ns/2.0.0/function#>\nPREFIX dc: <http://purl.org/dc/elements/1.1/>\nPREFIX foaf: <http://xmlns.com/foaf/0.1/>\nSELECT ?subject ?f1 ?f2 WHERE {\n  ?subject ma:hasFragment ?f1;\n            ma:hasFragment ?f2;\n            ma:hasFragment ?f3;\n            dc:title ?topic.\n  ?f1 dc:description "Person".\n  ?f2 dc:description "Car".\n  ?f3 dc:description "Person".\n\n  FILTER mm:rightBeside(?f1, ?f2)\n  FILTER mm:rightBeside(?f2, ?f3)\n}'
p50
aS'PREFIX ma: <http://www.w3.org/ns/ma-ont#>\nPREFIX mm:  <http://linkedmultimedia.org/sparql-mm/ns/2.0.0/function#>\nPREFIX dc: <http://purl.org/dc/elements/1.1/>\nPREFIX foaf: <http://xmlns.com/foaf/0.1/>\nSELECT ?subject ?f1 ?f2 WHERE {\n  ?subject ma:hasFragment ?f1;\n            ma:hasFragment ?f2;\n            ma:hasFragment ?f3;\n            dc:title ?topic.\n  ?f1 dc:description "Person".\n  ?f2 dc:description "Car".\n  ?f3 dc:description "Person".\n\n  FILTER mm:rightBeside(?f1, ?f2)\n  FILTER mm:rightBeside(?f2, ?f3)\n}limit 50'
p51
aS'PREFIX ma: <http://www.w3.org/ns/ma-ont#>\nPREFIX mm:  <http://linkedmultimedia.org/sparql-mm/ns/2.0.0/function#>\nPREFIX dc: <http://purl.org/dc/elements/1.1/>\nPREFIX foaf: <http://xmlns.com/foaf/0.1/>\nSELECT ?subject ?f1 ?f2 WHERE {\n  ?subject ma:hasFragment ?f1;\n            ma:hasFragment ?f2;\n            ma:hasFragment ?f3;\n            dc:title ?topic.\n  ?f1 dc:description "Person".\n  ?f2 dc:description "Car".\n  ?f3 dc:description "Person".\n\n  FILTER mm:rightBeside(?f1, ?f2)\n  FILTER mm:rightBeside(?f2, ?f3)\n}limit 100'
p52
aS'PREFIX ma: <http://www.w3.org/ns/ma-ont#>\nPREFIX mm:  <http://linkedmultimedia.org/sparql-mm/ns/2.0.0/function#>\nPREFIX dc: <http://purl.org/dc/elements/1.1/>\nPREFIX foaf: <http://xmlns.com/foaf/0.1/>\nSELECT ?subject ?f1 ?f2 WHERE {\n  ?subject ma:hasFragment ?f1;\n            ma:hasFragment ?f2;\n            ma:hasFragment ?f3;\n            dc:title ?topic.\n  ?f1 dc:description "Person".\n  ?f2 dc:description "Person".\n  ?f3 dc:description "Person".\n\n  FILTER mm:leftBeside(?f1, ?f2)\n  FILTER mm:leftBeside(?f2, ?f3)\n}'
p53
aS'PREFIX ma: <http://www.w3.org/ns/ma-ont#>\nPREFIX mm:  <http://linkedmultimedia.org/sparql-mm/ns/2.0.0/function#>\nPREFIX dc: <http://purl.org/dc/elements/1.1/>\nPREFIX foaf: <http://xmlns.com/foaf/0.1/>\nSELECT ?subject ?f1 ?f2 WHERE {\n  ?subject ma:hasFragment ?f1;\n            ma:hasFragment ?f2;\n            ma:hasFragment ?f3;\n            dc:title ?topic.\n  ?f1 dc:description "Person".\n  ?f2 dc:description "Person".\n  ?f3 dc:description "Person".\n\n  FILTER mm:leftBeside(?f1, ?f2)\n  FILTER mm:leftBeside(?f2, ?f3)\n} limit 50'
p54
aS'PREFIX ma: <http://www.w3.org/ns/ma-ont#>\nPREFIX mm:  <http://linkedmultimedia.org/sparql-mm/ns/2.0.0/function#>\nPREFIX dc: <http://purl.org/dc/elements/1.1/>\nPREFIX foaf: <http://xmlns.com/foaf/0.1/>\nSELECT ?subject ?f1 ?f2 WHERE {\n  ?subject ma:hasFragment ?f1;\n            ma:hasFragment ?f2;\n            ma:hasFragment ?f3;\n            dc:title ?topic.\n  ?f1 dc:description "Person".\n  ?f2 dc:description "Person".\n  ?f3 dc:description "Person".\n\n  FILTER mm:leftBeside(?f1, ?f2)\n  FILTER mm:leftBeside(?f2, ?f3)\n} limit 100'
p55
aS'PREFIX ma: <http://www.w3.org/ns/ma-ont#>\nPREFIX mm:  <http://linkedmultimedia.org/sparql-mm/ns/2.0.0/function#>\nPREFIX dc: <http://purl.org/dc/elements/1.1/>\nPREFIX foaf: <http://xmlns.com/foaf/0.1/>\nSELECT ?subject ?f1 ?f2 WHERE {\n  ?subject ma:hasFragment ?f1;\n            ma:hasFragment ?f2;\n            ma:hasFragment ?f3;\n            dc:title ?topic.\n  ?f1 dc:description "Person".\n  ?f2 dc:description "Person".\n  ?f3 dc:description "Person".\n\n  FILTER mm:leftBeside(?f1, ?f2)\n  FILTER mm:leftBeside(?f2, ?f3)\n} limit 425'
p56
aS'PREFIX ma: <http://www.w3.org/ns/ma-ont#>\nPREFIX mm:  <http://linkedmultimedia.org/sparql-mm/ns/2.0.0/function#>\nPREFIX dc: <http://purl.org/dc/elements/1.1/>\nPREFIX foaf: <http://xmlns.com/foaf/0.1/>\nSELECT ?subject ?f1 ?f2 WHERE {\n  ?subject ma:hasFragment ?f1;\n            ma:hasFragment ?f2;\n            dc:title ?topic.\n  ?f1 dc:description "Person".\n  ?f2 dc:description "Person".\n\n  FILTER mm:spatialEquals(?f1, ?f2)\n}'
p57
aS'PREFIX ma: <http://www.w3.org/ns/ma-ont#>\nPREFIX mm:  <http://linkedmultimedia.org/sparql-mm/ns/2.0.0/function#>\nPREFIX dc: <http://purl.org/dc/elements/1.1/>\nPREFIX foaf: <http://xmlns.com/foaf/0.1/>\nSELECT ?subject ?f1 ?f2 WHERE {\n  ?subject ma:hasFragment ?f1;\n            ma:hasFragment ?f2;\n            dc:title ?topic.\n  ?f1 dc:description "Person".\n  ?f2 dc:description "Person".\n\n  FILTER mm:spatialEquals(?f1, ?f2)\n}limit 50'
p58
aS'PREFIX ma: <http://www.w3.org/ns/ma-ont#>\nPREFIX mm:  <http://linkedmultimedia.org/sparql-mm/ns/2.0.0/function#>\nPREFIX dc: <http://purl.org/dc/elements/1.1/>\nPREFIX foaf: <http://xmlns.com/foaf/0.1/>\nSELECT ?subject ?f1 ?f2 WHERE {\n  ?subject ma:hasFragment ?f1;\n            ma:hasFragment ?f2;\n            dc:title ?topic.\n  ?f1 dc:description "Person".\n  ?f2 dc:description "Person".\n\n  FILTER mm:spatialEquals(?f1, ?f2)\n}limit 100'
p59
aS'PREFIX ma: <http://www.w3.org/ns/ma-ont#>\nPREFIX mm:  <http://linkedmultimedia.org/sparql-mm/ns/2.0.0/function#>\nPREFIX dc: <http://purl.org/dc/elements/1.1/>\nPREFIX foaf: <http://xmlns.com/foaf/0.1/>\nSELECT ?subject ?f1 ?f2 WHERE {\n  ?subject ma:hasFragment ?f1;\n            ma:hasFragment ?f2;\n            dc:title ?topic.\n  ?f1 dc:description "Person".\n  ?f2 dc:description "Person".\n\n  FILTER mm:spatialEquals(?f1, ?f2)\n}limit 500'
p60
aS'PREFIX ma: <http://www.w3.org/ns/ma-ont#>\nPREFIX mm:  <http://linkedmultimedia.org/sparql-mm/ns/2.0.0/function#>\nPREFIX dc: <http://purl.org/dc/elements/1.1/>\nPREFIX foaf: <http://xmlns.com/foaf/0.1/>\nSELECT ?subject ?f1 ?f2 WHERE {\n  ?subject ma:hasFragment ?f1;\n            ma:hasFragment ?f2;\n            dc:title ?topic.\n  ?f1 dc:description "Person".\n  ?f2 dc:description "Tree".\n\n  FILTER mm:spatialDisjoint(?f1, ?f2)\n}'
p61
aS'PREFIX ma: <http://www.w3.org/ns/ma-ont#>\nPREFIX mm:  <http://linkedmultimedia.org/sparql-mm/ns/2.0.0/function#>\nPREFIX dc: <http://purl.org/dc/elements/1.1/>\nPREFIX foaf: <http://xmlns.com/foaf/0.1/>\nSELECT ?subject ?f1 ?f2 WHERE {\n  ?subject ma:hasFragment ?f1;\n            ma:hasFragment ?f2;\n            dc:title ?topic.\n  ?f1 dc:description "Person".\n  ?f2 dc:description "Tree".\n\n  FILTER mm:spatialDisjoint(?f1, ?f2)\n}limit 50'
p62
aS'PREFIX ma: <http://www.w3.org/ns/ma-ont#>\nPREFIX mm:  <http://linkedmultimedia.org/sparql-mm/ns/2.0.0/function#>\nPREFIX dc: <http://purl.org/dc/elements/1.1/>\nPREFIX foaf: <http://xmlns.com/foaf/0.1/>\nSELECT ?subject ?f1 ?f2 WHERE {\n  ?subject ma:hasFragment ?f1;\n            ma:hasFragment ?f2;\n            dc:title ?topic.\n  ?f1 dc:description "Person".\n  ?f2 dc:description "Tree".\n\n  FILTER mm:spatialDisjoint(?f1, ?f2)\n}limit 100'
p63
aS'PREFIX ma: <http://www.w3.org/ns/ma-ont#>\nPREFIX mm:  <http://linkedmultimedia.org/sparql-mm/ns/2.0.0/function#>\nPREFIX dc: <http://purl.org/dc/elements/1.1/>\nPREFIX foaf: <http://xmlns.com/foaf/0.1/>\nSELECT ?subject ?f1 ?f2 WHERE {\n  ?subject ma:hasFragment ?f1;\n            ma:hasFragment ?f2;\n            dc:title ?topic.\n  ?f1 dc:description "Person".\n  ?f2 dc:description "Car".\n\n  FILTER mm:spatialDisjoint(?f1, ?f2)\n}'
p64
aS'PREFIX ma: <http://www.w3.org/ns/ma-ont#>\nPREFIX mm:  <http://linkedmultimedia.org/sparql-mm/ns/2.0.0/function#>\nPREFIX dc: <http://purl.org/dc/elements/1.1/>\nPREFIX foaf: <http://xmlns.com/foaf/0.1/>\nSELECT ?subject ?f1 ?f2 WHERE {\n  ?subject ma:hasFragment ?f1;\n            ma:hasFragment ?f2;\n            dc:title ?topic.\n  ?f1 dc:description "Person".\n  ?f2 dc:description "Car".\n\n  FILTER mm:spatialDisjoint(?f1, ?f2)\n}limit 50'
p65
aS'PREFIX ma: <http://www.w3.org/ns/ma-ont#>\nPREFIX mm:  <http://linkedmultimedia.org/sparql-mm/ns/2.0.0/function#>\nPREFIX dc: <http://purl.org/dc/elements/1.1/>\nPREFIX foaf: <http://xmlns.com/foaf/0.1/>\nSELECT ?subject ?f1 ?f2 WHERE {\n  ?subject ma:hasFragment ?f1;\n            ma:hasFragment ?f2;\n            dc:title ?topic.\n  ?f1 dc:description "Person".\n  ?f2 dc:description "Car".\n\n  FILTER mm:spatialDisjoint(?f1, ?f2)\n}limit 100'
p66
aS'PREFIX ma: <http://www.w3.org/ns/ma-ont#>\nPREFIX mm:  <http://linkedmultimedia.org/sparql-mm/ns/2.0.0/function#>\nPREFIX dc: <http://purl.org/dc/elements/1.1/>\nPREFIX foaf: <http://xmlns.com/foaf/0.1/>\nSELECT ?subject ?f1 ?f2 WHERE {\n  ?subject ma:hasFragment ?f1;\n            ma:hasFragment ?f2;\n            dc:title ?topic.\n  ?f1 dc:description "Car".\n  ?f2 dc:description "Tree".\n\n  FILTER mm:spatialContains(?f1, ?f2)\n}'
p67
aS'PREFIX ma: <http://www.w3.org/ns/ma-ont#>\nPREFIX mm:  <http://linkedmultimedia.org/sparql-mm/ns/2.0.0/function#>\nPREFIX dc: <http://purl.org/dc/elements/1.1/>\nPREFIX foaf: <http://xmlns.com/foaf/0.1/>\nSELECT ?subject ?f1 ?f2 WHERE {\n  ?subject ma:hasFragment ?f1;\n            ma:hasFragment ?f2;\n            dc:title ?topic.\n  ?f1 dc:description "Car".\n  ?f2 dc:description "Tree".\n\n  FILTER mm:spatialContains(?f1, ?f2)\n}limit 50'
p68
aS'PREFIX ma: <http://www.w3.org/ns/ma-ont#>\nPREFIX mm:  <http://linkedmultimedia.org/sparql-mm/ns/2.0.0/function#>\nPREFIX dc: <http://purl.org/dc/elements/1.1/>\nPREFIX foaf: <http://xmlns.com/foaf/0.1/>\nSELECT ?subject ?f1 ?f2 WHERE {\n  ?subject ma:hasFragment ?f1;\n            ma:hasFragment ?f2;\n            dc:title ?topic.\n  ?f1 dc:description "Car".\n  ?f2 dc:description "Tree".\n\n  FILTER mm:spatialContains(?f1, ?f2)\n}limit 100'
p69
aS'PREFIX ma: <http://www.w3.org/ns/ma-ont#>\nPREFIX mm:  <http://linkedmultimedia.org/sparql-mm/ns/2.0.0/function#>\nPREFIX dc: <http://purl.org/dc/elements/1.1/>\nPREFIX foaf: <http://xmlns.com/foaf/0.1/>\nSELECT ?subject ?f1 ?f2 WHERE {\n  ?subject ma:hasFragment ?f1;\n            ma:hasFragment ?f2;\n            ma:hasFragment ?f3;\n            dc:title ?topic.\n  ?f1 dc:description "Car".\n  ?f2 dc:description "Tree".\n  ?f3 dc:description "Person".\n\n  FILTER mm:covers(?f1, ?f2)\n}'
p70
aS'PREFIX ma: <http://www.w3.org/ns/ma-ont#>\nPREFIX mm:  <http://linkedmultimedia.org/sparql-mm/ns/2.0.0/function#>\nPREFIX dc: <http://purl.org/dc/elements/1.1/>\nPREFIX foaf: <http://xmlns.com/foaf/0.1/>\nSELECT ?subject ?f1 ?f2 WHERE {\n  ?subject ma:hasFragment ?f1;\n            ma:hasFragment ?f2;\n            ma:hasFragment ?f3;\n            dc:title ?topic.\n  ?f1 dc:description "Car".\n  ?f2 dc:description "Tree".\n  ?f3 dc:description "Person".\n\n  FILTER mm:covers(?f1, ?f2)\n}limit 50'
p71
aS'PREFIX ma: <http://www.w3.org/ns/ma-ont#>\nPREFIX mm:  <http://linkedmultimedia.org/sparql-mm/ns/2.0.0/function#>\nPREFIX dc: <http://purl.org/dc/elements/1.1/>\nPREFIX foaf: <http://xmlns.com/foaf/0.1/>\nSELECT ?subject ?f1 ?f2 WHERE {\n  ?subject ma:hasFragment ?f1;\n            ma:hasFragment ?f2;\n            ma:hasFragment ?f3;\n            dc:title ?topic.\n  ?f1 dc:description "Car".\n  ?f2 dc:description "Tree".\n  ?f3 dc:description "Person".\n\n  FILTER mm:covers(?f1, ?f2)\n}limit 100'
p72
aS'PREFIX ma: <http://www.w3.org/ns/ma-ont#>\nPREFIX mm:  <http://linkedmultimedia.org/sparql-mm/ns/2.0.0/function#>\nPREFIX dc: <http://purl.org/dc/elements/1.1/>\nPREFIX foaf: <http://xmlns.com/foaf/0.1/>\nSELECT ?subject ?f1 ?f2 WHERE {\n  ?subject ma:hasFragment ?f1;\n            ma:hasFragment ?f2;\n            ma:hasFragment ?f3;\n            dc:title ?topic.\n  ?f1 dc:description "Tree".\n  ?f2 dc:description "Tree".\n  ?f3 dc:description "Person".\n\n  FILTER mm:spatialOverlaps(?f1, ?f2)\n}'
p73
aS'PREFIX ma: <http://www.w3.org/ns/ma-ont#>\nPREFIX mm:  <http://linkedmultimedia.org/sparql-mm/ns/2.0.0/function#>\nPREFIX dc: <http://purl.org/dc/elements/1.1/>\nPREFIX foaf: <http://xmlns.com/foaf/0.1/>\nSELECT ?subject ?f1 ?f2 WHERE {\n  ?subject ma:hasFragment ?f1;\n            ma:hasFragment ?f2;\n            ma:hasFragment ?f3;\n            dc:title ?topic.\n  ?f1 dc:description "Tree".\n  ?f2 dc:description "Tree".\n  ?f3 dc:description "Person".\n\n  FILTER mm:spatialOverlaps(?f1, ?f2)\n}limit 50'
p74
aS'PREFIX ma: <http://www.w3.org/ns/ma-ont#>\nPREFIX mm:  <http://linkedmultimedia.org/sparql-mm/ns/2.0.0/function#>\nPREFIX dc: <http://purl.org/dc/elements/1.1/>\nPREFIX foaf: <http://xmlns.com/foaf/0.1/>\nSELECT ?subject ?f1 ?f2 WHERE {\n  ?subject ma:hasFragment ?f1;\n            ma:hasFragment ?f2;\n            ma:hasFragment ?f3;\n            dc:title ?topic.\n  ?f1 dc:description "Tree".\n  ?f2 dc:description "Tree".\n  ?f3 dc:description "Person".\n\n  FILTER mm:spatialOverlaps(?f1, ?f2)\n}limit 100'
p75
a.