(lp0
S'PREFIX ma: <http://www.w3.org/ns/ma-ont#>\nPREFIX mm:  <http://linkedmultimedia.org/sparql-mm/ns/2.0.0/function#>\nPREFIX dc: <http://purl.org/dc/elements/1.1/>\nPREFIX foaf: <http://xmlns.com/foaf/0.1/>\nSELECT ?subject ?f1 ?f2 WHERE {\n  ?subject ma:hasFragment ?f1;\n            ma:hasFragment ?f2;\n            dc:title ?topic.\n  ?f1 dc:description "Person".\n  ?f2 dc:description "Car".\n\n  FILTER mm:leftBeside(?f1, ?f2)\n}'
p1
aS'PREFIX ma: <http://www.w3.org/ns/ma-ont#>\nPREFIX mm:  <http://linkedmultimedia.org/sparql-mm/ns/2.0.0/function#>\nPREFIX dc: <http://purl.org/dc/elements/1.1/>\nPREFIX foaf: <http://xmlns.com/foaf/0.1/>\nSELECT ?subject ?f1 ?f2 WHERE {\n  ?subject ma:hasFragment ?f1;\n            ma:hasFragment ?f2;\n            dc:title ?topic.\n  ?f1 dc:description "Person".\n  ?f2 dc:description "Car".\n\n  FILTER mm:leftBeside(?f1, ?f2)\n}LIMIT 50'
p2
aS'PREFIX ma: <http://www.w3.org/ns/ma-ont#>\nPREFIX mm:  <http://linkedmultimedia.org/sparql-mm/ns/2.0.0/function#>\nPREFIX dc: <http://purl.org/dc/elements/1.1/>\nPREFIX foaf: <http://xmlns.com/foaf/0.1/>\nSELECT ?subject ?f1 ?f2 WHERE {\n  ?subject ma:hasFragment ?f1;\n            ma:hasFragment ?f2;\n            dc:title ?topic.\n  ?f1 dc:description "Person".\n  ?f2 dc:description "Car".\n\n  FILTER mm:leftBeside(?f1, ?f2)\n}LIMIT 100'
p3
aS'PREFIX ma: <http://www.w3.org/ns/ma-ont#>\nPREFIX mm:  <http://linkedmultimedia.org/sparql-mm/ns/2.0.0/function#>\nPREFIX dc: <http://purl.org/dc/elements/1.1/>\nPREFIX foaf: <http://xmlns.com/foaf/0.1/>\nSELECT ?subject ?f1 ?f2 WHERE {\n  ?subject ma:hasFragment ?f1;\n            ma:hasFragment ?f2;\n            dc:title ?topic.\n  ?f1 dc:description "Person".\n  ?f2 dc:description "Tree".\n\n  FILTER mm:rightBeside(?f1, ?f2)\n}'
p4
aS'PREFIX ma: <http://www.w3.org/ns/ma-ont#>\nPREFIX mm:  <http://linkedmultimedia.org/sparql-mm/ns/2.0.0/function#>\nPREFIX dc: <http://purl.org/dc/elements/1.1/>\nPREFIX foaf: <http://xmlns.com/foaf/0.1/>\nSELECT ?subject ?f1 ?f2 WHERE {\n  ?subject ma:hasFragment ?f1;\n            ma:hasFragment ?f2;\n            dc:title ?topic.\n  ?f1 dc:description "Person".\n  ?f2 dc:description "Tree".\n\n  FILTER mm:rightBeside(?f1, ?f2)\n}limit 50'
p5
aS'PREFIX ma: <http://www.w3.org/ns/ma-ont#>\nPREFIX mm:  <http://linkedmultimedia.org/sparql-mm/ns/2.0.0/function#>\nPREFIX dc: <http://purl.org/dc/elements/1.1/>\nPREFIX foaf: <http://xmlns.com/foaf/0.1/>\nSELECT ?subject ?f1 ?f2 WHERE {\n  ?subject ma:hasFragment ?f1;\n            ma:hasFragment ?f2;\n            dc:title ?topic.\n  ?f1 dc:description "Person".\n  ?f2 dc:description "Tree".\n\n  FILTER mm:rightBeside(?f1, ?f2)\n}limit 100'
p6
ag1
aS'PREFIX ma: <http://www.w3.org/ns/ma-ont#>\nPREFIX mm:  <http://linkedmultimedia.org/sparql-mm/ns/2.0.0/function#>\nPREFIX dc: <http://purl.org/dc/elements/1.1/>\nPREFIX foaf: <http://xmlns.com/foaf/0.1/>\nSELECT ?subject ?f1 ?f2 WHERE {\n  ?subject ma:hasFragment ?f1;\n            ma:hasFragment ?f2;\n            dc:title ?topic.\n  ?f1 dc:description "Person".\n  ?f2 dc:description "Car".\n\n  FILTER mm:leftBeside(?f1, ?f2)\n}limit 50'
p7
aS'PREFIX ma: <http://www.w3.org/ns/ma-ont#>\nPREFIX mm:  <http://linkedmultimedia.org/sparql-mm/ns/2.0.0/function#>\nPREFIX dc: <http://purl.org/dc/elements/1.1/>\nPREFIX foaf: <http://xmlns.com/foaf/0.1/>\nSELECT ?subject ?f1 ?f2 WHERE {\n  ?subject ma:hasFragment ?f1;\n            ma:hasFragment ?f2;\n            dc:title ?topic.\n  ?f1 dc:description "Person".\n  ?f2 dc:description "Car".\n\n  FILTER mm:leftBeside(?f1, ?f2)\n}limit 100'
p8
aS'PREFIX ma: <http://www.w3.org/ns/ma-ont#>\nPREFIX mm:  <http://linkedmultimedia.org/sparql-mm/ns/2.0.0/function#>\nPREFIX dc: <http://purl.org/dc/elements/1.1/>\nPREFIX foaf: <http://xmlns.com/foaf/0.1/>\nSELECT ?subject ?f1 ?f2 WHERE {\n  ?subject ma:hasFragment ?f1;\n            ma:hasFragment ?f2;\n            dc:title ?topic.\n  ?f1 dc:description "Person".\n  ?f2 dc:description "Tree".\n\n  FILTER mm:rightBeside(?f1, ?f2)\n}limit 200'
p9
aS'PREFIX ma: <http://www.w3.org/ns/ma-ont#>\nPREFIX mm:  <http://linkedmultimedia.org/sparql-mm/ns/2.0.0/function#>\nPREFIX dc: <http://purl.org/dc/elements/1.1/>\nPREFIX foaf: <http://xmlns.com/foaf/0.1/>\nSELECT ?subject ?f1 ?f2 WHERE {\n  ?subject ma:hasFragment ?f1;\n            ma:hasFragment ?f2;\n            dc:title ?topic.\n  ?f1 dc:description "Person".\n  ?f2 dc:description "Animal".\n\n  FILTER mm:rightAbove(?f1, ?f2)\n}'
p10
aS'PREFIX ma: <http://www.w3.org/ns/ma-ont#>\nPREFIX mm:  <http://linkedmultimedia.org/sparql-mm/ns/2.0.0/function#>\nPREFIX dc: <http://purl.org/dc/elements/1.1/>\nPREFIX foaf: <http://xmlns.com/foaf/0.1/>\nSELECT ?subject ?f1 ?f2 WHERE {\n  ?subject ma:hasFragment ?f1;\n            ma:hasFragment ?f2;\n            dc:title ?topic.\n  ?f1 dc:description "Person".\n  ?f2 dc:description "Animal".\n\n  FILTER mm:rightAbove(?f1, ?f2)\n}limit 50'
p11
aS'PREFIX ma: <http://www.w3.org/ns/ma-ont#>\nPREFIX mm:  <http://linkedmultimedia.org/sparql-mm/ns/2.0.0/function#>\nPREFIX dc: <http://purl.org/dc/elements/1.1/>\nPREFIX foaf: <http://xmlns.com/foaf/0.1/>\nSELECT ?subject ?f1 ?f2 WHERE {\n  ?subject ma:hasFragment ?f1;\n            ma:hasFragment ?f2;\n            dc:title ?topic.\n  ?f1 dc:description "Person".\n  ?f2 dc:description "Animal".\n\n  FILTER mm:rightAbove(?f1, ?f2)\n}limit 100'
p12
aS'PREFIX ma: <http://www.w3.org/ns/ma-ont#>\nPREFIX mm:  <http://linkedmultimedia.org/sparql-mm/ns/2.0.0/function#>\nPREFIX dc: <http://purl.org/dc/elements/1.1/>\nPREFIX foaf: <http://xmlns.com/foaf/0.1/>\nSELECT ?subject ?f1 ?f2 WHERE {\n  ?subject ma:hasFragment ?f1;\n            ma:hasFragment ?f2;\n            dc:title ?topic.\n  ?f1 dc:description "Person".\n  ?f2 dc:description "Person".\n\n  FILTER mm:leftAbove(?f1, ?f2)\n}'
p13
aS'PREFIX ma: <http://www.w3.org/ns/ma-ont#>\nPREFIX mm:  <http://linkedmultimedia.org/sparql-mm/ns/2.0.0/function#>\nPREFIX dc: <http://purl.org/dc/elements/1.1/>\nPREFIX foaf: <http://xmlns.com/foaf/0.1/>\nSELECT ?subject ?f1 ?f2 WHERE {\n  ?subject ma:hasFragment ?f1;\n            ma:hasFragment ?f2;\n            dc:title ?topic.\n  ?f1 dc:description "Person".\n  ?f2 dc:description "Person".\n\n  FILTER mm:leftAbove(?f1, ?f2)\n}limit 50'
p14
aS'PREFIX ma: <http://www.w3.org/ns/ma-ont#>\nPREFIX mm:  <http://linkedmultimedia.org/sparql-mm/ns/2.0.0/function#>\nPREFIX dc: <http://purl.org/dc/elements/1.1/>\nPREFIX foaf: <http://xmlns.com/foaf/0.1/>\nSELECT ?subject ?f1 ?f2 WHERE {\n  ?subject ma:hasFragment ?f1;\n            ma:hasFragment ?f2;\n            dc:title ?topic.\n  ?f1 dc:description "Person".\n  ?f2 dc:description "Person".\n\n  FILTER mm:leftAbove(?f1, ?f2)\n}limit 100'
p15
aS'PREFIX ma: <http://www.w3.org/ns/ma-ont#>\nPREFIX mm:  <http://linkedmultimedia.org/sparql-mm/ns/2.0.0/function#>\nPREFIX dc: <http://purl.org/dc/elements/1.1/>\nPREFIX foaf: <http://xmlns.com/foaf/0.1/>\nSELECT ?subject ?f1 ?f2 WHERE {\n  ?subject ma:hasFragment ?f1;\n            ma:hasFragment ?f2;\n            dc:title ?topic.\n  ?f1 dc:description "Person".\n  ?f2 dc:description "Person".\n\n  FILTER mm:leftAbove(?f1, ?f2)\n}limit 150'
p16
aS'PREFIX ma: <http://www.w3.org/ns/ma-ont#>\nPREFIX mm:  <http://linkedmultimedia.org/sparql-mm/ns/2.0.0/function#>\nPREFIX dc: <http://purl.org/dc/elements/1.1/>\nPREFIX foaf: <http://xmlns.com/foaf/0.1/>\nSELECT ?subject ?f1 ?f2 WHERE {\n  ?subject ma:hasFragment ?f1;\n            ma:hasFragment ?f2;\n            dc:title ?topic.\n  ?f1 dc:description "Person".\n  ?f2 dc:description "Person".\n\n  FILTER mm:below(?f1, ?f2)\n}'
p17
aS'PREFIX ma: <http://www.w3.org/ns/ma-ont#>\nPREFIX mm:  <http://linkedmultimedia.org/sparql-mm/ns/2.0.0/function#>\nPREFIX dc: <http://purl.org/dc/elements/1.1/>\nPREFIX foaf: <http://xmlns.com/foaf/0.1/>\nSELECT ?subject ?f1 ?f2 WHERE {\n  ?subject ma:hasFragment ?f1;\n            ma:hasFragment ?f2;\n            dc:title ?topic.\n  ?f1 dc:description "Person".\n  ?f2 dc:description "Person".\n\n  FILTER mm:below(?f1, ?f2)\n}limit 50'
p18
aS'PREFIX ma: <http://www.w3.org/ns/ma-ont#>\nPREFIX mm:  <http://linkedmultimedia.org/sparql-mm/ns/2.0.0/function#>\nPREFIX dc: <http://purl.org/dc/elements/1.1/>\nPREFIX foaf: <http://xmlns.com/foaf/0.1/>\nSELECT ?subject ?f1 ?f2 WHERE {\n  ?subject ma:hasFragment ?f1;\n            ma:hasFragment ?f2;\n            dc:title ?topic.\n  ?f1 dc:description "Person".\n  ?f2 dc:description "Person".\n\n  FILTER mm:below(?f1, ?f2)\n}limit 100'
p19
aS'PREFIX ma: <http://www.w3.org/ns/ma-ont#>\nPREFIX mm:  <http://linkedmultimedia.org/sparql-mm/ns/2.0.0/function#>\nPREFIX dc: <http://purl.org/dc/elements/1.1/>\nPREFIX foaf: <http://xmlns.com/foaf/0.1/>\nSELECT ?subject ?f1 ?f2 WHERE {\n  ?subject ma:hasFragment ?f1;\n            ma:hasFragment ?f2;\n            dc:title ?topic.\n  ?f1 dc:description "Person".\n  ?f2 dc:description "Person".\n\n  FILTER mm:below(?f1, ?f2)\n}limit 500'
p20
aS'PREFIX ma: <http://www.w3.org/ns/ma-ont#>\nPREFIX mm:  <http://linkedmultimedia.org/sparql-mm/ns/2.0.0/function#>\nPREFIX dc: <http://purl.org/dc/elements/1.1/>\nPREFIX foaf: <http://xmlns.com/foaf/0.1/>\nSELECT ?subject ?f1 ?f2 WHERE {\n  ?subject ma:hasFragment ?f1;\n            ma:hasFragment ?f2;\n            ma:hasFragment ?f3;\n            dc:title ?topic.\n  ?f1 dc:description "Person".\n  ?f2 dc:description "Car".\n  ?f3 dc:description "Person".\n\n  FILTER mm:rightBeside(?f1, ?f2)\n  FILTER mm:rightBeside(?f2, ?f3)\n}'
p21
aS'PREFIX ma: <http://www.w3.org/ns/ma-ont#>\nPREFIX mm:  <http://linkedmultimedia.org/sparql-mm/ns/2.0.0/function#>\nPREFIX dc: <http://purl.org/dc/elements/1.1/>\nPREFIX foaf: <http://xmlns.com/foaf/0.1/>\nSELECT ?subject ?f1 ?f2 WHERE {\n  ?subject ma:hasFragment ?f1;\n            ma:hasFragment ?f2;\n            ma:hasFragment ?f3;\n            dc:title ?topic.\n  ?f1 dc:description "Person".\n  ?f2 dc:description "Car".\n  ?f3 dc:description "Person".\n\n  FILTER mm:rightBeside(?f1, ?f2)\n  FILTER mm:rightBeside(?f2, ?f3)\n}limit 50'
p22
aS'PREFIX ma: <http://www.w3.org/ns/ma-ont#>\nPREFIX mm:  <http://linkedmultimedia.org/sparql-mm/ns/2.0.0/function#>\nPREFIX dc: <http://purl.org/dc/elements/1.1/>\nPREFIX foaf: <http://xmlns.com/foaf/0.1/>\nSELECT ?subject ?f1 ?f2 WHERE {\n  ?subject ma:hasFragment ?f1;\n            ma:hasFragment ?f2;\n            ma:hasFragment ?f3;\n            dc:title ?topic.\n  ?f1 dc:description "Person".\n  ?f2 dc:description "Car".\n  ?f3 dc:description "Person".\n\n  FILTER mm:rightBeside(?f1, ?f2)\n  FILTER mm:rightBeside(?f2, ?f3)\n}limit 100'
p23
aS'PREFIX ma: <http://www.w3.org/ns/ma-ont#>\nPREFIX mm:  <http://linkedmultimedia.org/sparql-mm/ns/2.0.0/function#>\nPREFIX dc: <http://purl.org/dc/elements/1.1/>\nPREFIX foaf: <http://xmlns.com/foaf/0.1/>\nSELECT ?subject ?f1 ?f2 WHERE {\n  ?subject ma:hasFragment ?f1;\n            ma:hasFragment ?f2;\n            ma:hasFragment ?f3;\n            dc:title ?topic.\n  ?f1 dc:description "Person".\n  ?f2 dc:description "Person".\n  ?f3 dc:description "Person".\n\n  FILTER mm:leftBeside(?f1, ?f2)\n  FILTER mm:leftBeside(?f2, ?f3)\n}'
p24
aS'PREFIX ma: <http://www.w3.org/ns/ma-ont#>\nPREFIX mm:  <http://linkedmultimedia.org/sparql-mm/ns/2.0.0/function#>\nPREFIX dc: <http://purl.org/dc/elements/1.1/>\nPREFIX foaf: <http://xmlns.com/foaf/0.1/>\nSELECT ?subject ?f1 ?f2 WHERE {\n  ?subject ma:hasFragment ?f1;\n            ma:hasFragment ?f2;\n            ma:hasFragment ?f3;\n            dc:title ?topic.\n  ?f1 dc:description "Person".\n  ?f2 dc:description "Person".\n  ?f3 dc:description "Person".\n\n  FILTER mm:leftBeside(?f1, ?f2)\n  FILTER mm:leftBeside(?f2, ?f3)\n} limit 50'
p25
aS'PREFIX ma: <http://www.w3.org/ns/ma-ont#>\nPREFIX mm:  <http://linkedmultimedia.org/sparql-mm/ns/2.0.0/function#>\nPREFIX dc: <http://purl.org/dc/elements/1.1/>\nPREFIX foaf: <http://xmlns.com/foaf/0.1/>\nSELECT ?subject ?f1 ?f2 WHERE {\n  ?subject ma:hasFragment ?f1;\n            ma:hasFragment ?f2;\n            ma:hasFragment ?f3;\n            dc:title ?topic.\n  ?f1 dc:description "Person".\n  ?f2 dc:description "Person".\n  ?f3 dc:description "Person".\n\n  FILTER mm:leftBeside(?f1, ?f2)\n  FILTER mm:leftBeside(?f2, ?f3)\n} limit 100'
p26
aS'PREFIX ma: <http://www.w3.org/ns/ma-ont#>\nPREFIX mm:  <http://linkedmultimedia.org/sparql-mm/ns/2.0.0/function#>\nPREFIX dc: <http://purl.org/dc/elements/1.1/>\nPREFIX foaf: <http://xmlns.com/foaf/0.1/>\nSELECT ?subject ?f1 ?f2 WHERE {\n  ?subject ma:hasFragment ?f1;\n            ma:hasFragment ?f2;\n            ma:hasFragment ?f3;\n            dc:title ?topic.\n  ?f1 dc:description "Person".\n  ?f2 dc:description "Person".\n  ?f3 dc:description "Person".\n\n  FILTER mm:leftBeside(?f1, ?f2)\n  FILTER mm:leftBeside(?f2, ?f3)\n} limit 425'
p27
aS'PREFIX ma: <http://www.w3.org/ns/ma-ont#>\nPREFIX mm:  <http://linkedmultimedia.org/sparql-mm/ns/2.0.0/function#>\nPREFIX dc: <http://purl.org/dc/elements/1.1/>\nPREFIX foaf: <http://xmlns.com/foaf/0.1/>\nSELECT ?subject ?f1 ?f2 WHERE {\n  ?subject ma:hasFragment ?f1;\n            ma:hasFragment ?f2;\n            dc:title ?topic.\n  ?f1 dc:description "Person".\n  ?f2 dc:description "Person".\n\n  FILTER mm:spatialEquals(?f1, ?f2)\n}'
p28
aS'PREFIX ma: <http://www.w3.org/ns/ma-ont#>\nPREFIX mm:  <http://linkedmultimedia.org/sparql-mm/ns/2.0.0/function#>\nPREFIX dc: <http://purl.org/dc/elements/1.1/>\nPREFIX foaf: <http://xmlns.com/foaf/0.1/>\nSELECT ?subject ?f1 ?f2 WHERE {\n  ?subject ma:hasFragment ?f1;\n            ma:hasFragment ?f2;\n            dc:title ?topic.\n  ?f1 dc:description "Person".\n  ?f2 dc:description "Person".\n\n  FILTER mm:spatialEquals(?f1, ?f2)\n}limit 50'
p29
aS'PREFIX ma: <http://www.w3.org/ns/ma-ont#>\nPREFIX mm:  <http://linkedmultimedia.org/sparql-mm/ns/2.0.0/function#>\nPREFIX dc: <http://purl.org/dc/elements/1.1/>\nPREFIX foaf: <http://xmlns.com/foaf/0.1/>\nSELECT ?subject ?f1 ?f2 WHERE {\n  ?subject ma:hasFragment ?f1;\n            ma:hasFragment ?f2;\n            dc:title ?topic.\n  ?f1 dc:description "Person".\n  ?f2 dc:description "Person".\n\n  FILTER mm:spatialEquals(?f1, ?f2)\n}limit 100'
p30
aS'PREFIX ma: <http://www.w3.org/ns/ma-ont#>\nPREFIX mm:  <http://linkedmultimedia.org/sparql-mm/ns/2.0.0/function#>\nPREFIX dc: <http://purl.org/dc/elements/1.1/>\nPREFIX foaf: <http://xmlns.com/foaf/0.1/>\nSELECT ?subject ?f1 ?f2 WHERE {\n  ?subject ma:hasFragment ?f1;\n            ma:hasFragment ?f2;\n            dc:title ?topic.\n  ?f1 dc:description "Person".\n  ?f2 dc:description "Person".\n\n  FILTER mm:spatialEquals(?f1, ?f2)\n}limit 500'
p31
aS'PREFIX ma: <http://www.w3.org/ns/ma-ont#>\nPREFIX mm:  <http://linkedmultimedia.org/sparql-mm/ns/2.0.0/function#>\nPREFIX dc: <http://purl.org/dc/elements/1.1/>\nPREFIX foaf: <http://xmlns.com/foaf/0.1/>\nSELECT ?subject ?f1 ?f2 WHERE {\n  ?subject ma:hasFragment ?f1;\n            ma:hasFragment ?f2;\n            dc:title ?topic.\n  ?f1 dc:description "Person".\n  ?f2 dc:description "Tree".\n\n  FILTER mm:spatialDisjoint(?f1, ?f2)\n}'
p32
aS'PREFIX ma: <http://www.w3.org/ns/ma-ont#>\nPREFIX mm:  <http://linkedmultimedia.org/sparql-mm/ns/2.0.0/function#>\nPREFIX dc: <http://purl.org/dc/elements/1.1/>\nPREFIX foaf: <http://xmlns.com/foaf/0.1/>\nSELECT ?subject ?f1 ?f2 WHERE {\n  ?subject ma:hasFragment ?f1;\n            ma:hasFragment ?f2;\n            dc:title ?topic.\n  ?f1 dc:description "Person".\n  ?f2 dc:description "Tree".\n\n  FILTER mm:spatialDisjoint(?f1, ?f2)\n}limit 50'
p33
aS'PREFIX ma: <http://www.w3.org/ns/ma-ont#>\nPREFIX mm:  <http://linkedmultimedia.org/sparql-mm/ns/2.0.0/function#>\nPREFIX dc: <http://purl.org/dc/elements/1.1/>\nPREFIX foaf: <http://xmlns.com/foaf/0.1/>\nSELECT ?subject ?f1 ?f2 WHERE {\n  ?subject ma:hasFragment ?f1;\n            ma:hasFragment ?f2;\n            dc:title ?topic.\n  ?f1 dc:description "Person".\n  ?f2 dc:description "Tree".\n\n  FILTER mm:spatialDisjoint(?f1, ?f2)\n}limit 100'
p34
aS'PREFIX ma: <http://www.w3.org/ns/ma-ont#>\nPREFIX mm:  <http://linkedmultimedia.org/sparql-mm/ns/2.0.0/function#>\nPREFIX dc: <http://purl.org/dc/elements/1.1/>\nPREFIX foaf: <http://xmlns.com/foaf/0.1/>\nSELECT ?subject ?f1 ?f2 WHERE {\n  ?subject ma:hasFragment ?f1;\n            ma:hasFragment ?f2;\n            dc:title ?topic.\n  ?f1 dc:description "Person".\n  ?f2 dc:description "Car".\n\n  FILTER mm:spatialDisjoint(?f1, ?f2)\n}'
p35
aS'PREFIX ma: <http://www.w3.org/ns/ma-ont#>\nPREFIX mm:  <http://linkedmultimedia.org/sparql-mm/ns/2.0.0/function#>\nPREFIX dc: <http://purl.org/dc/elements/1.1/>\nPREFIX foaf: <http://xmlns.com/foaf/0.1/>\nSELECT ?subject ?f1 ?f2 WHERE {\n  ?subject ma:hasFragment ?f1;\n            ma:hasFragment ?f2;\n            dc:title ?topic.\n  ?f1 dc:description "Person".\n  ?f2 dc:description "Car".\n\n  FILTER mm:spatialDisjoint(?f1, ?f2)\n}limit 50'
p36
aS'PREFIX ma: <http://www.w3.org/ns/ma-ont#>\nPREFIX mm:  <http://linkedmultimedia.org/sparql-mm/ns/2.0.0/function#>\nPREFIX dc: <http://purl.org/dc/elements/1.1/>\nPREFIX foaf: <http://xmlns.com/foaf/0.1/>\nSELECT ?subject ?f1 ?f2 WHERE {\n  ?subject ma:hasFragment ?f1;\n            ma:hasFragment ?f2;\n            dc:title ?topic.\n  ?f1 dc:description "Person".\n  ?f2 dc:description "Car".\n\n  FILTER mm:spatialDisjoint(?f1, ?f2)\n}limit 100'
p37
aS'PREFIX ma: <http://www.w3.org/ns/ma-ont#>\nPREFIX mm:  <http://linkedmultimedia.org/sparql-mm/ns/2.0.0/function#>\nPREFIX dc: <http://purl.org/dc/elements/1.1/>\nPREFIX foaf: <http://xmlns.com/foaf/0.1/>\nSELECT ?subject ?f1 ?f2 WHERE {\n  ?subject ma:hasFragment ?f1;\n            ma:hasFragment ?f2;\n            dc:title ?topic.\n  ?f1 dc:description "Car".\n  ?f2 dc:description "Tree".\n\n  FILTER mm:spatialContains(?f1, ?f2)\n}'
p38
aS'PREFIX ma: <http://www.w3.org/ns/ma-ont#>\nPREFIX mm:  <http://linkedmultimedia.org/sparql-mm/ns/2.0.0/function#>\nPREFIX dc: <http://purl.org/dc/elements/1.1/>\nPREFIX foaf: <http://xmlns.com/foaf/0.1/>\nSELECT ?subject ?f1 ?f2 WHERE {\n  ?subject ma:hasFragment ?f1;\n            ma:hasFragment ?f2;\n            dc:title ?topic.\n  ?f1 dc:description "Car".\n  ?f2 dc:description "Tree".\n\n  FILTER mm:spatialContains(?f1, ?f2)\n}limit 50'
p39
aS'PREFIX ma: <http://www.w3.org/ns/ma-ont#>\nPREFIX mm:  <http://linkedmultimedia.org/sparql-mm/ns/2.0.0/function#>\nPREFIX dc: <http://purl.org/dc/elements/1.1/>\nPREFIX foaf: <http://xmlns.com/foaf/0.1/>\nSELECT ?subject ?f1 ?f2 WHERE {\n  ?subject ma:hasFragment ?f1;\n            ma:hasFragment ?f2;\n            dc:title ?topic.\n  ?f1 dc:description "Car".\n  ?f2 dc:description "Tree".\n\n  FILTER mm:spatialContains(?f1, ?f2)\n}limit 100'
p40
aS'PREFIX ma: <http://www.w3.org/ns/ma-ont#>\nPREFIX mm:  <http://linkedmultimedia.org/sparql-mm/ns/2.0.0/function#>\nPREFIX dc: <http://purl.org/dc/elements/1.1/>\nPREFIX foaf: <http://xmlns.com/foaf/0.1/>\nSELECT ?subject ?f1 ?f2 WHERE {\n  ?subject ma:hasFragment ?f1;\n            ma:hasFragment ?f2;\n            ma:hasFragment ?f3;\n            dc:title ?topic.\n  ?f1 dc:description "Car".\n  ?f2 dc:description "Tree".\n  ?f3 dc:description "Person".\n\n  FILTER mm:covers(?f1, ?f2)\n}'
p41
aS'PREFIX ma: <http://www.w3.org/ns/ma-ont#>\nPREFIX mm:  <http://linkedmultimedia.org/sparql-mm/ns/2.0.0/function#>\nPREFIX dc: <http://purl.org/dc/elements/1.1/>\nPREFIX foaf: <http://xmlns.com/foaf/0.1/>\nSELECT ?subject ?f1 ?f2 WHERE {\n  ?subject ma:hasFragment ?f1;\n            ma:hasFragment ?f2;\n            ma:hasFragment ?f3;\n            dc:title ?topic.\n  ?f1 dc:description "Car".\n  ?f2 dc:description "Tree".\n  ?f3 dc:description "Person".\n\n  FILTER mm:covers(?f1, ?f2)\n}limit 50'
p42
aS'PREFIX ma: <http://www.w3.org/ns/ma-ont#>\nPREFIX mm:  <http://linkedmultimedia.org/sparql-mm/ns/2.0.0/function#>\nPREFIX dc: <http://purl.org/dc/elements/1.1/>\nPREFIX foaf: <http://xmlns.com/foaf/0.1/>\nSELECT ?subject ?f1 ?f2 WHERE {\n  ?subject ma:hasFragment ?f1;\n            ma:hasFragment ?f2;\n            ma:hasFragment ?f3;\n            dc:title ?topic.\n  ?f1 dc:description "Car".\n  ?f2 dc:description "Tree".\n  ?f3 dc:description "Person".\n\n  FILTER mm:covers(?f1, ?f2)\n}limit 100'
p43
aS'PREFIX ma: <http://www.w3.org/ns/ma-ont#>\nPREFIX mm:  <http://linkedmultimedia.org/sparql-mm/ns/2.0.0/function#>\nPREFIX dc: <http://purl.org/dc/elements/1.1/>\nPREFIX foaf: <http://xmlns.com/foaf/0.1/>\nSELECT ?subject ?f1 ?f2 WHERE {\n  ?subject ma:hasFragment ?f1;\n            ma:hasFragment ?f2;\n            ma:hasFragment ?f3;\n            dc:title ?topic.\n  ?f1 dc:description "Tree".\n  ?f2 dc:description "Tree".\n  ?f3 dc:description "Person".\n\n  FILTER mm:spatialOverlaps(?f1, ?f2)\n}'
p44
aS'PREFIX ma: <http://www.w3.org/ns/ma-ont#>\nPREFIX mm:  <http://linkedmultimedia.org/sparql-mm/ns/2.0.0/function#>\nPREFIX dc: <http://purl.org/dc/elements/1.1/>\nPREFIX foaf: <http://xmlns.com/foaf/0.1/>\nSELECT ?subject ?f1 ?f2 WHERE {\n  ?subject ma:hasFragment ?f1;\n            ma:hasFragment ?f2;\n            ma:hasFragment ?f3;\n            dc:title ?topic.\n  ?f1 dc:description "Tree".\n  ?f2 dc:description "Tree".\n  ?f3 dc:description "Person".\n\n  FILTER mm:spatialOverlaps(?f1, ?f2)\n}limit 50'
p45
aS'PREFIX ma: <http://www.w3.org/ns/ma-ont#>\nPREFIX mm:  <http://linkedmultimedia.org/sparql-mm/ns/2.0.0/function#>\nPREFIX dc: <http://purl.org/dc/elements/1.1/>\nPREFIX foaf: <http://xmlns.com/foaf/0.1/>\nSELECT ?subject ?f1 ?f2 WHERE {\n  ?subject ma:hasFragment ?f1;\n            ma:hasFragment ?f2;\n            ma:hasFragment ?f3;\n            dc:title ?topic.\n  ?f1 dc:description "Tree".\n  ?f2 dc:description "Tree".\n  ?f3 dc:description "Person".\n\n  FILTER mm:spatialOverlaps(?f1, ?f2)\n}limit 100'
p46
a.